; Function Attrs: nounwind uwtable
define dso_local zeroext i1 @to_jsonb_is_immutable(i32 noundef %0) local_unnamed_addr #0 {
  %2 = alloca i32, align 4
  %3 = alloca i32, align 4
  call void @llvm.lifetime.start.p0(i64 4, ptr nonnull %2) #11
  call void @llvm.lifetime.start.p0(i64 4, ptr nonnull %3) #11
  call void @json_categorize_type(i32 noundef %0, i1 noundef zeroext true, ptr noundef nonnull %2, ptr noundef nonnull %3) #11
  %4 = load i32, ptr %2, align 4
  switch i32 %4, label %9 [
    i32 0, label %10
    i32 1, label %10
    i32 6, label %10
    i32 7, label %10
    i32 11, label %5
    i32 10, label %5
    i32 2, label %5
  ]

5:                                                ; preds = %1, %1, %1
  %6 = load i32, ptr %3, align 4
  %7 = call signext i8 @func_volatile(i32 noundef %6) #11
  %8 = icmp eq i8 %7, 105
  br label %10

9:                                                ; preds = %1
  br label %10

10:                                               ; preds = %1, %1, %1, %1, %9, %5
  %.0 = phi i1 [ false, %9 ], [ %8, %5 ], [ true, %1 ], [ true, %1 ], [ true, %1 ], [ true, %1 ]
  call void @llvm.lifetime.end.p0(i64 4, ptr nonnull %3) #11
  call void @llvm.lifetime.end.p0(i64 4, ptr nonnull %2) #11
  ret i1 %.0
}